target datalayout = "e-m:e-p270:32:32-p271:32:32-p272:64:64-i64:64-i128:128-f80:128-n8:16:32:64-S128"
target triple = "x86_64-pc-linux-gnu"

%"class.boost::container::pmr::monotonic_buffer_resource" = type { %"class.boost::container::pmr::memory_resource", %"class.boost::container::pmr::block_slist", ptr, i64, i64, ptr, i64 }
%"class.boost::container::pmr::memory_resource" = type { ptr }
%"class.boost::container::pmr::block_slist" = type { %"class.boost::container::pmr::block_slist_base", ptr }
%"class.boost::container::pmr::block_slist_base" = type { %"struct.boost::container::pmr::slist_node" }
%"struct.boost::container::pmr::slist_node" = type { ptr }

; Function Attrs: mustprogress nounwind uwtable
define noundef i64 @_ZNK5boost9container3pmr25monotonic_buffer_resource17remaining_storageEmRm(ptr noundef nonnull align 8 dereferenceable(64) %0, i64 noundef %1, ptr noundef nonnull align 8 dereferenceable(8) %2) #0 align 2 {
  %4 = alloca ptr, align 8
  %5 = alloca i64, align 8
  %6 = alloca ptr, align 8
  %7 = alloca i64, align 8
  %8 = alloca i64, align 8
  %9 = alloca i64, align 8
  %10 = alloca i64, align 8
  store ptr %0, ptr %4, align 8, !tbaa !3
  store i64 %1, ptr %5, align 8, !tbaa !14
  store ptr %2, ptr %6, align 8, !tbaa !3
  %11 = load ptr, ptr %4, align 8
  call void @llvm.lifetime.start.p0(i64 8, ptr %7) #11
  %12 = load i64, ptr %5, align 8, !tbaa !14
  %13 = sub i64 %12, 1
  store i64 %13, ptr %7, align 8, !tbaa !14
  call void @llvm.lifetime.start.p0(i64 8, ptr %8) #11
  %14 = load i64, ptr %7, align 8, !tbaa !14
  %15 = xor i64 %14, -1
  store i64 %15, ptr %8, align 8, !tbaa !14
  call void @llvm.lifetime.start.p0(i64 8, ptr %9) #11
  %16 = getelementptr inbounds nuw %"class.boost::container::pmr::monotonic_buffer_resource", ptr %11, i32 0, i32 2
  %17 = load ptr, ptr %16, align 8, !tbaa !17
  %18 = ptrtoint ptr %17 to i64
  store i64 %18, ptr %9, align 8, !tbaa !14
  call void @llvm.lifetime.start.p0(i64 8, ptr %10) #11
  %19 = load i64, ptr %9, align 8, !tbaa !14
  %20 = load i64, ptr %7, align 8, !tbaa !14
  %21 = add i64 %19, %20
  %22 = load i64, ptr %8, align 8, !tbaa !14
  %23 = and i64 %21, %22
  store i64 %23, ptr %10, align 8, !tbaa !14
  %24 = load i64, ptr %10, align 8, !tbaa !14
  %25 = load i64, ptr %9, align 8, !tbaa !14
  %26 = sub i64 %24, %25
  %27 = load ptr, ptr %6, align 8, !tbaa !3
  store i64 %26, ptr %27, align 8, !tbaa !14
  %28 = getelementptr inbounds nuw %"class.boost::container::pmr::monotonic_buffer_resource", ptr %11, i32 0, i32 3
  %29 = load i64, ptr %28, align 8, !tbaa !18
  %30 = load ptr, ptr %6, align 8, !tbaa !3
  %31 = load i64, ptr %30, align 8, !tbaa !14
  %32 = icmp ule i64 %29, %31
  br i1 %32, label %33, label %34

33:                                               ; preds = %3
  br label %40

34:                                               ; preds = %3
  %35 = getelementptr inbounds nuw %"class.boost::container::pmr::monotonic_buffer_resource", ptr %11, i32 0, i32 3
  %36 = load i64, ptr %35, align 8, !tbaa !18
  %37 = load ptr, ptr %6, align 8, !tbaa !3
  %38 = load i64, ptr %37, align 8, !tbaa !14
  %39 = sub i64 %36, %38
  br label %40

40:                                               ; preds = %34, %33
  %41 = phi i64 [ 0, %33 ], [ %39, %34 ]
  call void @llvm.lifetime.end.p0(i64 8, ptr %10) #11
  call void @llvm.lifetime.end.p0(i64 8, ptr %9) #11
  call void @llvm.lifetime.end.p0(i64 8, ptr %8) #11
  call void @llvm.lifetime.end.p0(i64 8, ptr %7) #11
  ret i64 %41
}