; Function Attrs: mustprogress nofree norecurse nosync nounwind willreturn memory(argmem: readwrite) uwtable
define noundef i64 @_ZNK5boost9container3pmr25monotonic_buffer_resource17remaining_storageEmRm(ptr nocapture noundef nonnull readonly align 8 dereferenceable(64) %0, i64 noundef %1, ptr nocapture noundef nonnull writeonly align 8 dereferenceable(8) %2) local_unnamed_addr #0 align 2 {
  %4 = add i64 %1, -1
  %5 = sub i64 0, %1
  %6 = getelementptr inbounds nuw i8, ptr %0, i64 24
  %7 = load ptr, ptr %6, align 8, !tbaa !17
  %8 = ptrtoint ptr %7 to i64
  %9 = add i64 %4, %8
  %10 = and i64 %9, %5
  %11 = sub i64 %10, %8
  store i64 %11, ptr %2, align 8, !tbaa !24
  %12 = getelementptr inbounds nuw i8, ptr %0, i64 32
  %13 = load i64, ptr %12, align 8, !tbaa !18
  %spec.select = tail call i64 @llvm.usub.sat.i64(i64 %13, i64 %11)
  ret i64 %spec.select
}